EXPORTS
??0NbBroadPhaseAddsProperty@physx@@QEAA@XZ
??0NbBroadPhaseRemovesProperty@physx@@QEAA@XZ
??0NbCCDPairsProperty@physx@@QEAA@XZ
??0NbDiscreteContactPairsProperty@physx@@QEAA@XZ
??0NbModifiedContactPairsProperty@physx@@QEAA@XZ
??0NbShapesProperty@physx@@QEAA@XZ
??0NbTriggerPairsProperty@physx@@QEAA@XZ
??0ProjectionPlaneProperty@physx@@QEAA@XZ
??0PxActorGeneratedInfo@physx@@QEAA@XZ
??0PxActorGeneratedValues@physx@@QEAA@PEBVPxActor@1@@Z
??0PxAggregateGeneratedInfo@physx@@QEAA@XZ
??0PxAggregateGeneratedValues@physx@@QEAA@PEBVPxAggregate@1@@Z
??0PxArticulationGeneratedInfo@physx@@QEAA@XZ
??0PxArticulationGeneratedValues@physx@@QEAA@PEBVPxArticulation@1@@Z
??0PxArticulationJointGeneratedInfo@physx@@QEAA@XZ
??0PxArticulationJointGeneratedValues@physx@@QEAA@PEBVPxArticulationJoint@1@@Z
??0PxArticulationLinkGeneratedInfo@physx@@QEAA@XZ
??0PxArticulationLinkGeneratedValues@physx@@QEAA@PEBVPxArticulationLink@1@@Z
??0PxBoxGeometryGeneratedInfo@physx@@QEAA@XZ
??0PxBoxGeometryGeneratedValues@physx@@QEAA@PEBVPxBoxGeometry@1@@Z
??0PxCapsuleGeometryGeneratedInfo@physx@@QEAA@XZ
??0PxCapsuleGeometryGeneratedValues@physx@@QEAA@PEBVPxCapsuleGeometry@1@@Z
??0PxClothFabricGeneratedInfo@physx@@QEAA@XZ
??0PxClothFabricGeneratedValues@physx@@QEAA@PEBVPxClothFabric@1@@Z
??0PxClothFabricPhaseGeneratedInfo@physx@@QEAA@XZ
??0PxClothFabricPhaseGeneratedValues@physx@@QEAA@PEBUPxClothFabricPhase@1@@Z
??0PxClothGeneratedInfo@physx@@QEAA@XZ
??0PxClothGeneratedValues@physx@@QEAA@PEBVPxCloth@1@@Z
??0PxClothMotionConstraintConfigGeneratedInfo@physx@@QEAA@XZ
??0PxClothMotionConstraintConfigGeneratedValues@physx@@QEAA@PEBUPxClothMotionConstraintConfig@1@@Z
??0PxClothParticleDataGeneratedInfo@physx@@QEAA@XZ
??0PxClothParticleDataGeneratedValues@physx@@QEAA@PEBVPxClothParticleData@1@@Z
??0PxClothParticleGeneratedInfo@physx@@QEAA@XZ
??0PxClothParticleGeneratedValues@physx@@QEAA@PEBUPxClothParticle@1@@Z
??0PxClothStretchConfigGeneratedInfo@physx@@QEAA@XZ
??0PxClothStretchConfigGeneratedValues@physx@@QEAA@PEBUPxClothStretchConfig@1@@Z
??0PxClothTetherConfigGeneratedInfo@physx@@QEAA@XZ
??0PxClothTetherConfigGeneratedValues@physx@@QEAA@PEBUPxClothTetherConfig@1@@Z
??0PxConstraintGeneratedInfo@physx@@QEAA@XZ
??0PxConstraintGeneratedValues@physx@@QEAA@PEBVPxConstraint@1@@Z
??0PxConvexMeshGeometryGeneratedInfo@physx@@QEAA@XZ
??0PxConvexMeshGeometryGeneratedValues@physx@@QEAA@PEBVPxConvexMeshGeometry@1@@Z
??0PxGeometryGeneratedInfo@physx@@QEAA@XZ
??0PxGeometryGeneratedValues@physx@@QEAA@PEBVPxGeometry@1@@Z
??0PxHeightFieldDescGeneratedInfo@physx@@QEAA@XZ
??0PxHeightFieldDescGeneratedValues@physx@@QEAA@PEBVPxHeightFieldDesc@1@@Z
??0PxHeightFieldGeometryGeneratedInfo@physx@@QEAA@XZ
??0PxHeightFieldGeometryGeneratedValues@physx@@QEAA@PEBVPxHeightFieldGeometry@1@@Z
??0PxLockedDataGeneratedInfo@physx@@QEAA@XZ
??0PxLockedDataGeneratedValues@physx@@QEAA@PEBVPxLockedData@1@@Z
??0PxMaterialGeneratedInfo@physx@@QEAA@XZ
??0PxMaterialGeneratedValues@physx@@QEAA@PEBVPxMaterial@1@@Z
??0PxMeshScaleGeneratedInfo@physx@@QEAA@XZ
??0PxMeshScaleGeneratedValues@physx@@QEAA@PEBVPxMeshScale@1@@Z
??0PxParticleBaseGeneratedInfo@physx@@QEAA@XZ
??0PxParticleBaseGeneratedValues@physx@@QEAA@PEBVPxParticleBase@1@@Z
??0PxParticleFluidGeneratedInfo@physx@@QEAA@XZ
??0PxParticleFluidGeneratedValues@physx@@QEAA@PEBVPxParticleFluid@1@@Z
??0PxParticleReadDataGeneratedInfo@physx@@QEAA@XZ
??0PxParticleReadDataGeneratedValues@physx@@QEAA@PEBVPxParticleReadData@1@@Z
??0PxParticleSystemGeneratedInfo@physx@@QEAA@XZ
??0PxParticleSystemGeneratedValues@physx@@QEAA@PEBVPxParticleSystem@1@@Z
??0PxPhysicsGeneratedInfo@physx@@QEAA@XZ
??0PxPhysicsGeneratedValues@physx@@QEAA@PEBVPxPhysics@1@@Z
??0PxPlaneGeometryGeneratedInfo@physx@@QEAA@XZ
??0PxPlaneGeometryGeneratedValues@physx@@QEAA@PEBVPxPlaneGeometry@1@@Z
??0PxPruningStructureGeneratedInfo@physx@@QEAA@XZ
??0PxPruningStructureGeneratedValues@physx@@QEAA@PEBVPxPruningStructure@1@@Z
??0PxRigidActorGeneratedInfo@physx@@QEAA@XZ
??0PxRigidActorGeneratedValues@physx@@QEAA@PEBVPxRigidActor@1@@Z
??0PxRigidBodyGeneratedInfo@physx@@QEAA@XZ
??0PxRigidBodyGeneratedValues@physx@@QEAA@PEBVPxRigidBody@1@@Z
??0PxRigidDynamicGeneratedInfo@physx@@QEAA@XZ
??0PxRigidDynamicGeneratedValues@physx@@QEAA@PEBVPxRigidDynamic@1@@Z
??0PxRigidStaticGeneratedInfo@physx@@QEAA@XZ
??0PxRigidStaticGeneratedValues@physx@@QEAA@PEBVPxRigidStatic@1@@Z
??0PxSceneDescGeneratedInfo@physx@@QEAA@XZ
??0PxSceneDescGeneratedValues@physx@@QEAA@PEBVPxSceneDesc@1@@Z
??0PxSceneGeneratedInfo@physx@@QEAA@XZ
??0PxSceneGeneratedValues@physx@@QEAA@PEBVPxScene@1@@Z
??0PxSceneLimitsGeneratedInfo@physx@@QEAA@XZ
??0PxSceneLimitsGeneratedValues@physx@@QEAA@PEBVPxSceneLimits@1@@Z
??0PxShapeGeneratedInfo@physx@@QEAA@XZ
??0PxShapeGeneratedValues@physx@@QEAA@PEBVPxShape@1@@Z
??0PxSimulationStatisticsGeneratedInfo@physx@@QEAA@XZ
??0PxSimulationStatisticsGeneratedValues@physx@@QEAA@PEBVPxSimulationStatistics@1@@Z
??0PxSphereGeometryGeneratedInfo@physx@@QEAA@XZ
??0PxSphereGeometryGeneratedValues@physx@@QEAA@PEBVPxSphereGeometry@1@@Z
??0PxTolerancesScaleGeneratedInfo@physx@@QEAA@XZ
??0PxTolerancesScaleGeneratedValues@physx@@QEAA@PEBVPxTolerancesScale@1@@Z
??0PxTriangleMeshGeometryGeneratedInfo@physx@@QEAA@XZ
??0PxTriangleMeshGeometryGeneratedValues@physx@@QEAA@PEBVPxTriangleMeshGeometry@1@@Z
??0PxgDynamicsMemoryConfigGeneratedInfo@physx@@QEAA@XZ
??0PxgDynamicsMemoryConfigGeneratedValues@physx@@QEAA@PEBUPxgDynamicsMemoryConfig@1@@Z
??0RestvaluesProperty@physx@@QEAA@XZ
??0SimulationStatisticsProperty@physx@@QEAA@XZ
?PxCreateSpatialIndex@physx@@YAPEAVPxSpatialIndex@1@XZ
?addLaunchTaskDependent@PxParticleDeviceExclusive@physx@@SAXAEAVPxParticleBase@2@AEAVPxBaseTask@2@@Z
?createConvexMeshMirror@PxParticleGpu@physx@@SA_NAEBVPxConvexMesh@2@AEAVPxCudaContextManager@2@@Z
?createHeightFieldMirror@PxParticleGpu@physx@@SA_NAEBVPxHeightField@2@AEAVPxCudaContextManager@2@@Z
?createLink@PxArticulationLinkCollectionPropHelper@physx@@QEBAPEAVPxArticulationLink@2@PEAVPxArticulation@2@PEAV32@AEBVPxTransform@2@@Z
?createShape@PxRigidActorShapeCollectionHelper@physx@@QEBAPEAVPxShape@2@PEAVPxRigidActor@2@AEBVPxGeometry@2@AEAVPxMaterial@2@V?$PxFlags@W4Enum@PxShapeFlag@physx@@E@2@@Z
?createShape@PxRigidActorShapeCollectionHelper@physx@@QEBAPEAVPxShape@2@PEAVPxRigidActor@2@AEBVPxGeometry@2@PEBQEAVPxMaterial@2@GV?$PxFlags@W4Enum@PxShapeFlag@physx@@E@2@@Z
?createTriangleMeshMirror@PxParticleGpu@physx@@SA_NAEBVPxTriangleMesh@2@AEAVPxCudaContextManager@2@@Z
?enable@PxParticleDeviceExclusive@physx@@SAXAEAVPxParticleBase@2@@Z
?getCudaStream@PxParticleDeviceExclusive@physx@@SAPEAUCUstream_st@@AEAVPxParticleBase@2@@Z
?getGeometry@PxShapeGeometryPropertyHelper@physx@@QEBA_NPEBVPxShape@2@AEAVPxBoxGeometry@2@@Z
?getGeometry@PxShapeGeometryPropertyHelper@physx@@QEBA_NPEBVPxShape@2@AEAVPxCapsuleGeometry@2@@Z
?getGeometry@PxShapeGeometryPropertyHelper@physx@@QEBA_NPEBVPxShape@2@AEAVPxConvexMeshGeometry@2@@Z
?getGeometry@PxShapeGeometryPropertyHelper@physx@@QEBA_NPEBVPxShape@2@AEAVPxHeightFieldGeometry@2@@Z
?getGeometry@PxShapeGeometryPropertyHelper@physx@@QEBA_NPEBVPxShape@2@AEAVPxPlaneGeometry@2@@Z
?getGeometry@PxShapeGeometryPropertyHelper@physx@@QEBA_NPEBVPxShape@2@AEAVPxSphereGeometry@2@@Z
?getGeometry@PxShapeGeometryPropertyHelper@physx@@QEBA_NPEBVPxShape@2@AEAVPxTriangleMeshGeometry@2@@Z
?getGeometryType@PxShapeGeometryPropertyHelper@physx@@QEBA?AW4Enum@PxGeometryType@2@PEBVPxShape@2@@Z
?getLaunchTask@PxParticleDeviceExclusive@physx@@SAPEAVPxBaseTask@2@AEAVPxParticleBase@2@@Z
?getReadWriteCudaBuffers@PxParticleDeviceExclusive@physx@@SAXAEAVPxParticleBase@2@AEAUPxCudaReadWriteParticleBuffers@2@@Z
?getTriangleMeshCacheStatistics@PxParticleGpu@physx@@SA?AUPxTriangleMeshCacheStatistics@2@AEBVPxScene@2@@Z
?isEnabled@PxParticleDeviceExclusive@physx@@SA_NAEAVPxParticleBase@2@@Z
?registerPhysXIndicatorGpuClient@PxPhysXIndicatorDeviceExclusive@physx@@SAXAEAVPxPhysics@2@@Z
?releaseConvexMeshMirror@PxParticleGpu@physx@@SAXAEBVPxConvexMesh@2@PEAVPxCudaContextManager@2@@Z
?releaseHeightFieldMirror@PxParticleGpu@physx@@SAXAEBVPxHeightField@2@PEAVPxCudaContextManager@2@@Z
?releaseTriangleMeshMirror@PxParticleGpu@physx@@SAXAEBVPxTriangleMesh@2@PEAVPxCudaContextManager@2@@Z
?setExplicitCudaFlushCountHint@PxParticleGpu@physx@@SAXAEBVPxScene@2@I@Z
?setFlags@PxParticleDeviceExclusive@physx@@SAXAEAVPxParticleBase@2@V?$PxFlags@W4Enum@PxParticleDeviceExclusiveFlag@physx@@I@2@@Z
?setMaterials@PxShapeMaterialsPropertyHelper@physx@@QEBAXPEAVPxShape@2@PEBQEAVPxMaterial@2@G@Z
?setTriangleMeshCacheSizeHint@PxParticleGpu@physx@@SA_NAEBVPxScene@2@I@Z
?setValidParticleRange@PxParticleDeviceExclusive@physx@@SAXAEAVPxParticleBase@2@I@Z
?unregisterPhysXIndicatorGpuClient@PxPhysXIndicatorDeviceExclusive@physx@@SAXAEAVPxPhysics@2@@Z
PxAddCollectionToPhysics
PxBatchConstraints
PxConstructSolverBodies
PxConstructStaticSolverBody
PxCreateBasePhysics
PxCreateContactConstraints
PxCreateCudaContextManager
PxCreateJointConstraints
PxCreateJointConstraintsWithShaders
PxGenerateContacts
PxGetPhysics
PxGetPhysicsBinaryMetaData
PxGetSuggestedCudaDeviceOrdinal
PxIntegrateSolverBodies
PxRegisterArticulations
PxRegisterCloth
PxRegisterHeightFields
PxRegisterLegacyHeightFields
PxRegisterParticles
PxRegisterPhysicsSerializers
PxSetPhysXDelayLoadHook
PxSetPhysXGpuLoadHook
PxSolveConstraints
PxUnregisterPhysicsSerializers
